Certificate:
    Data:
        Version: 3 (0x2)
        Serial Number:
            13:75:c8:55:66:df:a9:a0:4a:10:f3:39:57:c9:90:b7:9f:f6:19:98
        Signature Algorithm: sha256WithRSAEncryption
        Issuer: CN=localhost
        Validity
            Not Before: Dec  9 11:28:57 2025 GMT
            Not After : Dec  9 11:28:57 2026 GMT
        Subject: CN=localhost
        Subject Public Key Info:
            Public Key Algorithm: rsaEncryption
                Public-Key: (2048 bit)
                Modulus:
                    00:b3:8a:fc:b6:d6:fb:c7:aa:6b:eb:6c:97:a4:1e:
                    fd:64:13:fc:92:66:ac:af:f9:28:6e:cd:7c:c4:dd:
                    42:63:7e:9d:a8:ef:1d:77:88:56:63:4c:ae:46:3f:
                    28:b9:6f:99:49:d8:c0:f3:c3:93:5d:84:27:ba:3e:
                    5d:88:f6:c1:51:56:94:a4:0c:92:00:79:0f:13:a4:
                    1f:f9:70:64:bd:08:e5:58:97:21:f8:8a:b4:bf:af:
                    e9:3f:c3:23:37:ce:d8:2a:8e:bf:41:64:9b:30:9a:
                    ee:8e:c0:93:31:ef:1a:ef:d7:4d:a4:20:00:af:bd:
                    9a:39:b4:11:d7:05:2d:66:2b:0e:9e:a1:d9:37:60:
                    9f:03:3f:28:75:92:24:db:b3:b3:9a:5f:f4:0d:fa:
                    2f:ff:c8:3b:4c:39:be:78:8b:d3:82:66:c0:61:97:
                    14:cf:2e:18:6b:82:15:25:b7:1c:f5:7b:80:35:9e:
                    34:64:34:c4:9f:7a:4c:bc:2c:98:d0:fc:1b:65:15:
                    18:0c:b8:02:8d:e1:76:15:2e:c6:28:b7:bd:dd:39:
                    16:b2:90:80:66:a0:a9:8f:88:72:92:df:bf:5c:6b:
                    52:93:65:33:76:af:8f:80:57:36:51:78:4a:2d:e3:
                    62:36:76:87:08:7b:07:25:5a:45:7a:ef:3f:c4:dd:
                    dc:77
                Exponent: 65537 (0x10001)
        X509v3 extensions:
            X509v3 Subject Key Identifier: 
                47:05:2C:DD:6E:63:4C:61:71:E7:8A:E8:F9:A4:E0:0A:3E:37:DE:C3
            X509v3 Authority Key Identifier: 
                47:05:2C:DD:6E:63:4C:61:71:E7:8A:E8:F9:A4:E0:0A:3E:37:DE:C3
            X509v3 Basic Constraints: critical
                CA:TRUE
    Signature Algorithm: sha256WithRSAEncryption
    Signature Value:
        3c:ff:e6:f4:9e:5e:c3:d0:b9:e4:71:d3:15:89:3b:1f:60:06:
        7a:7f:0f:7a:b8:fd:76:ef:90:14:ad:82:0c:4f:92:09:cc:63:
        5e:8c:1a:23:fd:b9:49:b3:58:4e:8e:bc:5d:70:b6:a9:30:1b:
        ef:9f:d7:d2:7b:84:db:af:83:60:b9:f0:b3:8f:e5:2e:c0:19:
        07:8e:24:33:6c:aa:28:76:5a:78:e1:6c:8d:b7:dc:5c:aa:49:
        88:66:8b:a3:a2:c1:fc:8a:6d:94:68:58:89:ee:61:92:ca:91:
        64:ab:5e:39:35:07:c4:4f:8c:3d:c6:c0:d3:7e:c4:bf:b8:1b:
        ce:83:79:26:5a:76:a8:2d:c9:86:23:99:54:b0:19:8d:33:e4:
        5a:ad:1e:30:88:78:13:c0:da:24:09:3b:3c:95:31:5c:8e:31:
        98:5f:0b:9d:f6:8c:af:ae:8a:9c:14:a8:7d:9e:c6:4f:fb:60:
        b5:bd:f9:9b:91:37:83:a4:c8:13:0e:e9:41:1a:e0:10:bf:61:
        6a:9f:71:72:05:a1:9e:47:ef:f4:35:80:7d:37:2e:90:46:51:
        6a:23:3c:06:55:1d:6d:ca:30:6e:d2:fe:f3:4a:45:26:6d:8e:
        84:a8:1a:69:85:ff:b5:51:c1:fd:ee:20:d3:59:f9:15:85:8b:
        10:d8:8e:fa
-----BEGIN CERTIFICATE-----
MIIDCTCCAfGgAwIBAgIUE3XIVWbfqaBKEPM5V8mQt5/2GZgwDQYJKoZIhvcNAQEL
BQAwFDESMBAGA1UEAwwJbG9jYWxob3N0MB4XDTI1MTIwOTExMjg1N1oXDTI2MTIw
OTExMjg1N1owFDESMBAGA1UEAwwJbG9jYWxob3N0MIIBIjANBgkqhkiG9w0BAQEF
AAOCAQ8AMIIBCgKCAQEAs4r8ttb7x6pr62yXpB79ZBP8kmasr/kobs18xN1CY36d
qO8dd4hWY0yuRj8ouW+ZSdjA88OTXYQnuj5diPbBUVaUpAySAHkPE6Qf+XBkvQjl
WJch+Iq0v6/pP8MjN87YKo6/QWSbMJrujsCTMe8a79dNpCAAr72aObQR1wUtZisO
nqHZN2CfAz8odZIk27Ozml/0Dfov/8g7TDm+eIvTgmbAYZcUzy4Ya4IVJbcc9XuA
NZ40ZDTEn3pMvCyY0PwbZRUYDLgCjeF2FS7GKLe93TkWspCAZqCpj4hykt+/XGtS
k2Uzdq+PgFc2UXhKLeNiNnaHCHsHJVpFeu8/xN3cdwIDAQABo1MwUTAdBgNVHQ4E
FgQURwUs3W5jTGFx54ro+aTgCj433sMwHwYDVR0jBBgwFoAURwUs3W5jTGFx54ro
+aTgCj433sMwDwYDVR0TAQH/BAUwAwEB/zANBgkqhkiG9w0BAQsFAAOCAQEAPP/m
9J5ew9C55HHTFYk7H2AGen8Perj9du+QFK2CDE+SCcxjXowaI/25SbNYTo68XXC2
qTAb75/X0nuE26+DYLnws4/lLsAZB44kM2yqKHZaeOFsjbfcXKpJiGaLo6LB/Ipt
lGhYie5hksqRZKteOTUHxE+MPcbA037Ev7gbzoN5Jlp2qC3JhiOZVLAZjTPkWq0e
MIh4E8DaJAk7PJUxXI4xmF8LnfaMr66KnBSofZ7GT/tgtb35m5E3g6TIEw7pQRrg
EL9hap9xcgWhnkfv9DWAfTcukEZRaiM8BlUdbcowbtL+80pFJm2OhKgaaYX/tVHB
/e4g01n5FYWLENiO+g==
-----END CERTIFICATE-----
